; Function Attrs: nounwind uwtable
define noalias nonnull ptr @l___private_Lean_Data_Lsp_Internal_0__Lean_Lsp_hashRefIdent____x40_Lean_Data_Lsp_Internal___hyg_158____boxed(ptr noundef %0) #1 {
  %2 = ptrtoint ptr %0 to i64
  %3 = and i64 %2, 1
  %.not.i.i = icmp eq i64 %3, 0
  br i1 %.not.i.i, label %7, label %4

4:                                                ; preds = %1
  %5 = lshr i64 %2, 1
  %6 = trunc i64 %5 to i32
  br label %l___private_Lean_Data_Lsp_Internal_0__Lean_Lsp_hashRefIdent____x40_Lean_Data_Lsp_Internal___hyg_158_.exit

7:                                                ; preds = %1
  %8 = getelementptr i8, ptr %0, i64 4
  %.val.i.i = load i32, ptr %8, align 4
  %9 = lshr i32 %.val.i.i, 24
  br label %l___private_Lean_Data_Lsp_Internal_0__Lean_Lsp_hashRefIdent____x40_Lean_Data_Lsp_Internal___hyg_158_.exit

l___private_Lean_Data_Lsp_Internal_0__Lean_Lsp_hashRefIdent____x40_Lean_Data_Lsp_Internal___hyg_158_.exit: ; preds = %4, %7
  %.0.i.i = phi i32 [ %6, %4 ], [ %9, %7 ]
  %10 = icmp ne i32 %.0.i.i, 0
  %11 = getelementptr inbounds nuw i8, ptr %0, i64 8
  %12 = load ptr, ptr %11, align 8, !tbaa !4
  %13 = getelementptr inbounds nuw i8, ptr %0, i64 16
  %14 = load ptr, ptr %13, align 8, !tbaa !4
  %15 = tail call i64 @lean_string_hash(ptr noundef %12) #8
  %..i = zext i1 %10 to i64
  %16 = tail call i64 @lean_uint64_mix_hash(i64 noundef %..i, i64 noundef %15) #8
  %17 = tail call i64 @lean_string_hash(ptr noundef %14) #8
  %18 = tail call i64 @lean_uint64_mix_hash(i64 noundef %16, i64 noundef %17) #8
  br i1 %.not.i.i, label %19, label %lean_dec.exit

19:                                               ; preds = %l___private_Lean_Data_Lsp_Internal_0__Lean_Lsp_hashRefIdent____x40_Lean_Data_Lsp_Internal___hyg_158_.exit
  %20 = load i32, ptr %0, align 4, !tbaa !8
  %21 = icmp sgt i32 %20, 1
  br i1 %21, label %22, label %24, !prof !11

22:                                               ; preds = %19
  %23 = add nsw i32 %20, -1
  store i32 %23, ptr %0, align 4, !tbaa !8
  br label %lean_dec.exit

24:                                               ; preds = %19
  %.not.i = icmp eq i32 %20, 0
  br i1 %.not.i, label %lean_dec.exit, label %25

25:                                               ; preds = %24
  tail call void @lean_dec_ref_cold(ptr noundef nonnull %0) #8
  br label %lean_dec.exit

lean_dec.exit:                                    ; preds = %25, %24, %22, %l___private_Lean_Data_Lsp_Internal_0__Lean_Lsp_hashRefIdent____x40_Lean_Data_Lsp_Internal___hyg_158_.exit
  tail call void @lean_inc_heartbeat() #8
  %26 = tail call noalias ptr @mi_malloc_small(i64 noundef 16) #8
  %27 = icmp eq ptr %26, null
  br i1 %27, label %28, label %lean_box_uint64.exit

28:                                               ; preds = %lean_dec.exit
  tail call void @lean_internal_panic_out_of_memory() #9
  unreachable

lean_box_uint64.exit:                             ; preds = %lean_dec.exit
  %29 = getelementptr inbounds nuw i8, ptr %26, i64 4
  store i32 1, ptr %26, align 4, !tbaa !8
  store i32 16, ptr %29, align 4
  %30 = getelementptr inbounds nuw i8, ptr %26, i64 8
  store i64 %18, ptr %30, align 8, !tbaa !12
  ret ptr %26
}